target datalayout = "e-m:e-p270:32:32-p271:32:32-p272:64:64-i64:64-i128:128-f80:128-n8:16:32:64-S128"
target triple = "x86_64-pc-linux-gnu"

%"class.rocksdb::Status" = type { i8, i8, i8, i8, i8, i8, %"class.std::unique_ptr" }
%"class.std::unique_ptr" = type { %"struct.std::__uniq_ptr_data" }
%"struct.std::__uniq_ptr_data" = type { %"class.std::__uniq_ptr_impl" }
%"class.std::__uniq_ptr_impl" = type { %"class.std::tuple" }
%"class.std::tuple" = type { %"struct.std::_Tuple_impl" }
%"struct.std::_Tuple_impl" = type { %"struct.std::_Head_base.4" }
%"struct.std::_Head_base.4" = type { ptr }
%"class.rocksdb::Tracer" = type { ptr, %"struct.rocksdb::TraceOptions", %"class.std::unique_ptr.28", i64, %"class.rocksdb::Status" }
%"struct.rocksdb::TraceOptions" = type <{ i64, i64, i64, i8, [7 x i8] }>
%"class.std::unique_ptr.28" = type { %"struct.std::__uniq_ptr_data.29" }
%"struct.std::__uniq_ptr_data.29" = type { %"class.std::__uniq_ptr_impl.30" }
%"class.std::__uniq_ptr_impl.30" = type { %"class.std::tuple.31" }
%"class.std::tuple.31" = type { %"struct.std::_Tuple_impl.32" }
%"struct.std::_Tuple_impl.32" = type { %"struct.std::_Head_base.35" }
%"struct.std::_Head_base.35" = type { ptr }

; Function Attrs: mustprogress nounwind uwtable
define linkonce_odr noundef nonnull align 8 dereferenceable(8) ptr @_ZNSt10_Head_baseILm0EPN7rocksdb11TraceWriterELb0EE7_M_headERKS3_(ptr noundef nonnull align 8 dereferenceable(8) %0) #3 comdat align 2 {
  %2 = alloca ptr, align 8
  store ptr %0, ptr %2, align 8, !tbaa !258
  %3 = load ptr, ptr %2, align 8, !tbaa !258
  %4 = getelementptr inbounds nuw %"struct.std::_Head_base.35", ptr %3, i32 0, i32 0
  ret ptr %4
}

; Function Attrs: mustprogress nounwind uwtable
define linkonce_odr noundef nonnull align 8 dereferenceable(8) ptr @_ZNSt11_Tuple_implILm0EJPN7rocksdb11TraceWriterESt14default_deleteIS1_EEE7_M_headERKS5_(ptr noundef nonnull align 8 dereferenceable(8) %0) #3 comdat align 2 {
  %2 = alloca ptr, align 8
  store ptr %0, ptr %2, align 8, !tbaa !253
  %3 = load ptr, ptr %2, align 8, !tbaa !253
  %4 = call noundef nonnull align 8 dereferenceable(8) ptr @_ZNSt10_Head_baseILm0EPN7rocksdb11TraceWriterELb0EE7_M_headERKS3_(ptr noundef nonnull align 8 dereferenceable(8) %3) #4
  ret ptr %4
}

; Function Attrs: mustprogress nounwind uwtable
define linkonce_odr noundef nonnull align 8 dereferenceable(8) ptr @_ZSt12__get_helperILm0EPN7rocksdb11TraceWriterEJSt14default_deleteIS1_EEERKT0_RKSt11_Tuple_implIXT_EJS5_DpT1_EE(ptr noundef nonnull align 8 dereferenceable(8) %0) #3 comdat {
  %2 = alloca ptr, align 8
  store ptr %0, ptr %2, align 8, !tbaa !253
  %3 = load ptr, ptr %2, align 8, !tbaa !253
  %4 = call noundef nonnull align 8 dereferenceable(8) ptr @_ZNSt11_Tuple_implILm0EJPN7rocksdb11TraceWriterESt14default_deleteIS1_EEE7_M_headERKS5_(ptr noundef nonnull align 8 dereferenceable(8) %3) #4
  ret ptr %4
}

; Function Attrs: mustprogress nounwind uwtable
define linkonce_odr noundef nonnull align 8 dereferenceable(8) ptr @_ZSt3getILm0EJPN7rocksdb11TraceWriterESt14default_deleteIS1_EEERKNSt13tuple_elementIXT_ESt5tupleIJDpT0_EEE4typeERKS9_(ptr noundef nonnull align 8 dereferenceable(8) %0) #3 comdat {
  %2 = alloca ptr, align 8
  store ptr %0, ptr %2, align 8, !tbaa !251
  %3 = load ptr, ptr %2, align 8, !tbaa !251
  %4 = call noundef nonnull align 8 dereferenceable(8) ptr @_ZSt12__get_helperILm0EPN7rocksdb11TraceWriterEJSt14default_deleteIS1_EEERKT0_RKSt11_Tuple_implIXT_EJS5_DpT1_EE(ptr noundef nonnull align 8 dereferenceable(8) %3) #4
  ret ptr %4
}

; Function Attrs: mustprogress nounwind uwtable
define linkonce_odr noundef ptr @_ZNKSt15__uniq_ptr_implIN7rocksdb11TraceWriterESt14default_deleteIS1_EE6_M_ptrEv(ptr noundef nonnull align 8 dereferenceable(8) %0) #3 comdat align 2 {
  %2 = alloca ptr, align 8
  store ptr %0, ptr %2, align 8, !tbaa !249
  %3 = load ptr, ptr %2, align 8
  %4 = getelementptr inbounds nuw %"class.std::__uniq_ptr_impl.30", ptr %3, i32 0, i32 0
  %5 = call noundef nonnull align 8 dereferenceable(8) ptr @_ZSt3getILm0EJPN7rocksdb11TraceWriterESt14default_deleteIS1_EEERKNSt13tuple_elementIXT_ESt5tupleIJDpT0_EEE4typeERKS9_(ptr noundef nonnull align 8 dereferenceable(8) %4) #4
  %6 = load ptr, ptr %5, align 8, !tbaa !154
  ret ptr %6
}

; Function Attrs: mustprogress nounwind uwtable
define linkonce_odr noundef ptr @_ZNKSt10unique_ptrIN7rocksdb11TraceWriterESt14default_deleteIS1_EE3getEv(ptr noundef nonnull align 8 dereferenceable(8) %0) #3 comdat align 2 {
  %2 = alloca ptr, align 8
  store ptr %0, ptr %2, align 8, !tbaa !135
  %3 = load ptr, ptr %2, align 8
  %4 = getelementptr inbounds nuw %"class.std::unique_ptr.28", ptr %3, i32 0, i32 0
  %5 = call noundef ptr @_ZNKSt15__uniq_ptr_implIN7rocksdb11TraceWriterESt14default_deleteIS1_EE6_M_ptrEv(ptr noundef nonnull align 8 dereferenceable(8) %4) #4
  ret ptr %5
}

; Function Attrs: mustprogress nounwind uwtable
define linkonce_odr noundef ptr @_ZNKSt10unique_ptrIN7rocksdb11TraceWriterESt14default_deleteIS1_EEptEv(ptr noundef nonnull align 8 dereferenceable(8) %0) #3 comdat align 2 {
  %2 = alloca ptr, align 8
  store ptr %0, ptr %2, align 8, !tbaa !135
  %3 = load ptr, ptr %2, align 8
  %4 = call noundef ptr @_ZNKSt10unique_ptrIN7rocksdb11TraceWriterESt14default_deleteIS1_EE3getEv(ptr noundef nonnull align 8 dereferenceable(8) %3) #4
  ret ptr %4
}

; Function Attrs: mustprogress uwtable
define noundef zeroext i1 @_ZN7rocksdb6Tracer18IsTraceFileOverMaxEv(ptr noundef nonnull align 8 dereferenceable(72) %0) #5 align 2 {
  %2 = alloca ptr, align 8
  %3 = alloca i64, align 8
  store ptr %0, ptr %2, align 8, !tbaa !129
  %4 = load ptr, ptr %2, align 8
  call void @llvm.lifetime.start.p0(i64 8, ptr %3) #4
  %5 = getelementptr inbounds nuw %"class.rocksdb::Tracer", ptr %4, i32 0, i32 2
  %6 = call noundef ptr @_ZNKSt10unique_ptrIN7rocksdb11TraceWriterESt14default_deleteIS1_EEptEv(ptr noundef nonnull align 8 dereferenceable(8) %5) #4
  %7 = load ptr, ptr %6, align 8, !tbaa !149
  %8 = getelementptr inbounds ptr, ptr %7, i64 4
  %9 = load ptr, ptr %8, align 8
  %10 = call noundef i64 %9(ptr noundef nonnull align 8 dereferenceable(8) %6)
  store i64 %10, ptr %3, align 8, !tbaa !4
  %11 = load i64, ptr %3, align 8, !tbaa !4
  %12 = getelementptr inbounds nuw %"class.rocksdb::Tracer", ptr %4, i32 0, i32 1
  %13 = getelementptr inbounds nuw %"struct.rocksdb::TraceOptions", ptr %12, i32 0, i32 0
  %14 = load i64, ptr %13, align 8, !tbaa !174
  %15 = icmp ugt i64 %11, %14
  call void @llvm.lifetime.end.p0(i64 8, ptr %3) #4
  ret i1 %15
}

; Function Attrs: mustprogress uwtable
define noundef zeroext i1 @_ZN7rocksdb6Tracer15ShouldSkipTraceERKNS_9TraceTypeE(ptr noundef nonnull align 8 dereferenceable(72) %0, ptr noundef nonnull align 1 dereferenceable(1) %1) #5 align 2 {
  %3 = alloca i1, align 1
  %4 = alloca ptr, align 8
  %5 = alloca ptr, align 8
  %6 = alloca i64, align 8
  %7 = alloca i32, align 4
  store ptr %0, ptr %4, align 8, !tbaa !129
  store ptr %1, ptr %5, align 8, !tbaa !34
  %8 = load ptr, ptr %4, align 8
  %9 = call noundef zeroext i1 @_ZN7rocksdb6Tracer18IsTraceFileOverMaxEv(ptr noundef nonnull align 8 dereferenceable(72) %8)
  br i1 %9, label %10, label %11

10:                                               ; preds = %2
  store i1 true, ptr %3, align 1
  br label %48

11:                                               ; preds = %2
  call void @llvm.lifetime.start.p0(i64 8, ptr %6) #4
  store i64 0, ptr %6, align 8, !tbaa !158
  %12 = load ptr, ptr %5, align 8, !tbaa !34
  %13 = load i8, ptr %12, align 1, !tbaa !157
  %14 = sext i8 %13 to i32
  switch i32 %14, label %23 [
    i32 0, label %15
    i32 1, label %15
    i32 2, label %15
    i32 3, label %16
    i32 4, label %17
    i32 5, label %18
    i32 6, label %19
    i32 7, label %20
    i32 8, label %20
    i32 9, label %20
    i32 10, label %20
    i32 11, label %20
    i32 12, label %20
    i32 13, label %21
    i32 14, label %22
  ]

15:                                               ; preds = %11, %11, %11
  store i64 0, ptr %6, align 8, !tbaa !158
  br label %23

16:                                               ; preds = %11
  store i64 2, ptr %6, align 8, !tbaa !158
  br label %23

17:                                               ; preds = %11
  store i64 1, ptr %6, align 8, !tbaa !158
  br label %23

18:                                               ; preds = %11
  store i64 4, ptr %6, align 8, !tbaa !158
  br label %23

19:                                               ; preds = %11
  store i64 8, ptr %6, align 8, !tbaa !158
  br label %23

20:                                               ; preds = %11, %11, %11, %11, %11, %11
  store i64 0, ptr %6, align 8, !tbaa !158
  br label %23

21:                                               ; preds = %11
  store i64 16, ptr %6, align 8, !tbaa !158
  br label %23

22:                                               ; preds = %11
  store i64 0, ptr %6, align 8, !tbaa !158
  br label %23

23:                                               ; preds = %11, %22, %21, %20, %19, %18, %17, %16, %15
  %24 = load i64, ptr %6, align 8, !tbaa !158
  %25 = icmp ne i64 %24, 0
  br i1 %25, label %26, label %34

26:                                               ; preds = %23
  %27 = getelementptr inbounds nuw %"class.rocksdb::Tracer", ptr %8, i32 0, i32 1
  %28 = getelementptr inbounds nuw %"struct.rocksdb::TraceOptions", ptr %27, i32 0, i32 2
  %29 = load i64, ptr %28, align 8, !tbaa !160
  %30 = load i64, ptr %6, align 8, !tbaa !158
  %31 = and i64 %29, %30
  %32 = icmp ne i64 %31, 0
  br i1 %32, label %33, label %34

33:                                               ; preds = %26
  store i1 true, ptr %3, align 1
  store i32 1, ptr %7, align 4
  br label %47

34:                                               ; preds = %26, %23
  %35 = getelementptr inbounds nuw %"class.rocksdb::Tracer", ptr %8, i32 0, i32 3
  %36 = load i64, ptr %35, align 8, !tbaa !148
  %37 = add i64 %36, 1
  store i64 %37, ptr %35, align 8, !tbaa !148
  %38 = getelementptr inbounds nuw %"class.rocksdb::Tracer", ptr %8, i32 0, i32 3
  %39 = load i64, ptr %38, align 8, !tbaa !148
  %40 = getelementptr inbounds nuw %"class.rocksdb::Tracer", ptr %8, i32 0, i32 1
  %41 = getelementptr inbounds nuw %"struct.rocksdb::TraceOptions", ptr %40, i32 0, i32 1
  %42 = load i64, ptr %41, align 8, !tbaa !161
  %43 = icmp ult i64 %39, %42
  br i1 %43, label %44, label %45

44:                                               ; preds = %34
  store i1 true, ptr %3, align 1
  store i32 1, ptr %7, align 4
  br label %47

45:                                               ; preds = %34
  %46 = getelementptr inbounds nuw %"class.rocksdb::Tracer", ptr %8, i32 0, i32 3
  store i64 0, ptr %46, align 8, !tbaa !148
  store i1 false, ptr %3, align 1
  store i32 1, ptr %7, align 4
  br label %47

47:                                               ; preds = %45, %44, %33
  call void @llvm.lifetime.end.p0(i64 8, ptr %6) #4
  br label %48

48:                                               ; preds = %47, %10
  %49 = load i1, ptr %3, align 1
  ret i1 %49
}