; Function Attrs: mustprogress uwtable
define noundef zeroext i1 @_ZN7rocksdb6Tracer15ShouldSkipTraceERKNS_9TraceTypeE(ptr noundef nonnull align 8 captures(none) dereferenceable(72) %0, ptr noundef nonnull readonly align 1 captures(none) dereferenceable(1) %1) local_unnamed_addr #4 align 2 {
  %3 = getelementptr inbounds nuw i8, ptr %0, i64 40
  %4 = load ptr, ptr %3, align 8, !tbaa !133
  %5 = load ptr, ptr %4, align 8, !tbaa !84
  %6 = getelementptr inbounds nuw i8, ptr %5, i64 32
  %7 = load ptr, ptr %6, align 8
  %8 = tail call noundef i64 %7(ptr noundef nonnull align 8 dereferenceable(8) %4)
  %9 = getelementptr inbounds nuw i8, ptr %0, i64 8
  %10 = load i64, ptr %9, align 8, !tbaa !149
  %11 = icmp ugt i64 %8, %10
  br i1 %11, label %26, label %12

12:                                               ; preds = %2
  %13 = load i8, ptr %1, align 1, !tbaa !156
  %switch.tableidx = add i8 %13, -3
  %14 = icmp ult i8 %switch.tableidx, 11
  br i1 %14, label %switch.hole_check, label %19

switch.hole_check:                                ; preds = %12
  %switch.maskindex = zext nneg i8 %switch.tableidx to i16
  %switch.shifted = lshr i16 1039, %switch.maskindex
  %switch.lobit = trunc i16 %switch.shifted to i1
  br i1 %switch.lobit, label %switch.lookup, label %19

switch.lookup:                                    ; preds = %switch.hole_check
  %15 = zext nneg i8 %switch.tableidx to i64
  %switch.gep = getelementptr inbounds nuw [11 x i64], ptr @switch.table._ZN7rocksdb6Tracer15ShouldSkipTraceERKNS_9TraceTypeE, i64 0, i64 %15
  %switch.load = load i64, ptr %switch.gep, align 8
  %16 = getelementptr inbounds nuw i8, ptr %0, i64 24
  %17 = load i64, ptr %16, align 8, !tbaa !150
  %18 = and i64 %17, %switch.load
  %.not5 = icmp eq i64 %18, 0
  br i1 %.not5, label %19, label %26

19:                                               ; preds = %switch.hole_check, %12, %switch.lookup
  %20 = getelementptr inbounds nuw i8, ptr %0, i64 48
  %21 = load i64, ptr %20, align 8, !tbaa !151
  %22 = add i64 %21, 1
  %23 = getelementptr inbounds nuw i8, ptr %0, i64 16
  %24 = load i64, ptr %23, align 8, !tbaa !152
  %25 = icmp ult i64 %22, %24
  %spec.store.select = select i1 %25, i64 %22, i64 0
  store i64 %spec.store.select, ptr %20, align 8
  br label %26

26:                                               ; preds = %19, %switch.lookup, %2
  %.04 = phi i1 [ true, %2 ], [ true, %switch.lookup ], [ %25, %19 ]
  ret i1 %.04
}